; Function Attrs: mustprogress nounwind uwtable
define internal fastcc void @_ZN12_GLOBAL__N_114ODRTypeVisitor15VisitVectorTypeEPKN5clang10VectorTypeE(ptr noundef nonnull readonly align 8 captures(none) dereferenceable(16) %0, ptr noundef readonly captures(none) %1) unnamed_addr #0 align 2 {
  %3 = getelementptr inbounds nuw i8, ptr %1, i64 32
  %.sroa.0.0.copyload.i = load i64, ptr %3, align 16
  %4 = getelementptr inbounds nuw i8, ptr %0, i64 8
  %5 = load ptr, ptr %4, align 8
  tail call void @_ZN5clang7ODRHash11AddQualTypeENS_8QualTypeE(ptr noundef nonnull align 8 dereferenceable(320) %5, i64 %.sroa.0.0.copyload.i)
  %6 = load ptr, ptr %0, align 8
  %7 = getelementptr inbounds nuw i8, ptr %1, i64 20
  %8 = load i32, ptr %7, align 4
  %9 = tail call noundef i64 @_ZNK4llvm15SmallVectorBaseIjE4sizeEv(ptr noundef nonnull align 8 dereferenceable(144) %6) #14
  %10 = add i64 %9, 1
  %11 = tail call noundef i64 @_ZNK4llvm15SmallVectorBaseIjE8capacityEv(ptr noundef nonnull align 8 dereferenceable(144) %6) #14
  %.not.i.i.i.i = icmp ugt i64 %10, %11
  br i1 %.not.i.i.i.i, label %12, label %_ZN4llvm16FoldingSetNodeID10AddIntegerEj.exit

12:                                               ; preds = %2
  %13 = getelementptr inbounds nuw i8, ptr %6, i64 16
  tail call void @_ZN4llvm15SmallVectorBaseIjE8grow_podEPvmm(ptr noundef nonnull align 8 dereferenceable(144) %6, ptr noundef nonnull %13, i64 noundef %10, i64 noundef 4) #14
  br label %_ZN4llvm16FoldingSetNodeID10AddIntegerEj.exit

_ZN4llvm16FoldingSetNodeID10AddIntegerEj.exit:    ; preds = %2, %12
  %14 = load ptr, ptr %6, align 8
  %15 = tail call noundef i64 @_ZNK4llvm15SmallVectorBaseIjE4sizeEv(ptr noundef nonnull align 8 dereferenceable(144) %6) #14
  %16 = getelementptr inbounds i32, ptr %14, i64 %15
  store i32 %8, ptr %16, align 1
  %17 = tail call noundef i64 @_ZNK4llvm15SmallVectorBaseIjE4sizeEv(ptr noundef nonnull align 8 dereferenceable(144) %6) #14
  %18 = add i64 %17, 1
  tail call void @_ZN4llvm15SmallVectorBaseIjE8set_sizeEm(ptr noundef nonnull align 8 dereferenceable(144) %6, i64 noundef %18) #14
  %19 = load ptr, ptr %0, align 8
  %20 = getelementptr inbounds nuw i8, ptr %1, i64 16
  %21 = load i32, ptr %20, align 16
  %22 = tail call noundef i64 @_ZNK4llvm15SmallVectorBaseIjE4sizeEv(ptr noundef nonnull align 8 dereferenceable(144) %19) #14
  %23 = add i64 %22, 1
  %24 = tail call noundef i64 @_ZNK4llvm15SmallVectorBaseIjE8capacityEv(ptr noundef nonnull align 8 dereferenceable(144) %19) #14
  %.not.i.i.i.i5 = icmp ugt i64 %23, %24
  br i1 %.not.i.i.i.i5, label %25, label %_ZN4llvm16FoldingSetNodeID10AddIntegerEi.exit

25:                                               ; preds = %_ZN4llvm16FoldingSetNodeID10AddIntegerEj.exit
  %26 = getelementptr inbounds nuw i8, ptr %19, i64 16
  tail call void @_ZN4llvm15SmallVectorBaseIjE8grow_podEPvmm(ptr noundef nonnull align 8 dereferenceable(144) %19, ptr noundef nonnull %26, i64 noundef %23, i64 noundef 4) #14
  br label %_ZN4llvm16FoldingSetNodeID10AddIntegerEi.exit

_ZN4llvm16FoldingSetNodeID10AddIntegerEi.exit:    ; preds = %_ZN4llvm16FoldingSetNodeID10AddIntegerEj.exit, %25
  %27 = lshr i32 %21, 19
  %28 = and i32 %27, 15
  %29 = load ptr, ptr %19, align 8
  %30 = tail call noundef i64 @_ZNK4llvm15SmallVectorBaseIjE4sizeEv(ptr noundef nonnull align 8 dereferenceable(144) %19) #14
  %31 = getelementptr inbounds i32, ptr %29, i64 %30
  store i32 %28, ptr %31, align 1
  %32 = tail call noundef i64 @_ZNK4llvm15SmallVectorBaseIjE4sizeEv(ptr noundef nonnull align 8 dereferenceable(144) %19) #14
  %33 = add i64 %32, 1
  tail call void @_ZN4llvm15SmallVectorBaseIjE8set_sizeEm(ptr noundef nonnull align 8 dereferenceable(144) %19, i64 noundef %33) #14
  ret void
}